(itree_util
NodePack
p0
(dp1
S'child0'
p2
I1
sS'splitType'
p3
I3
sS'parent'
p4
I0
sS'child1'
p5
I2
sS'dataRowIDs'
p6
I5
sS'fields'
p7
(lp8
(dp9
I1
NsI2
I1
sI3
I1
sI4
I3
sI5
I3
sI6
I5
sI7
I5
sI8
I6
sI9
I6
sI10
I8
sI11
I8
sI12
I10
sI13
I10
sI14
I11
sI15
I11
sI16
I12
sI17
I12
sa(dp10
I1
I16
sI2
NsI3
NsI4
NsI5
NsI6
NsI7
NsI8
NsI9
NsI10
NsI11
NsI12
NsI13
NsI14
NsI15
NsI16
NsI17
Nsa(dp11
I1
I17
sI2
NsI3
NsI4
NsI5
NsI6
NsI7
NsI8
NsI9
NsI10
NsI11
NsI12
NsI13
NsI14
NsI15
NsI16
NsI17
Nsa(dp12
I1
cdata_util
FeatureType
p13
(I1
tp14
Rp15
sI2
NsI3
NsI4
NsI5
NsI6
NsI7
NsI8
NsI9
NsI10
NsI11
NsI12
NsI13
NsI14
NsI15
NsI16
NsI17
Nsa(dp16
I1
ctree_util
NodeType
p17
(I0
tp18
Rp19
sI2
g17
(I2
tp20
Rp21
sI3
g17
(I3
tp22
Rp23
sI4
g21
sI5
g23
sI6
g23
sI7
g21
sI8
g23
sI9
g21
sI10
g23
sI11
g23
sI12
g23
sI13
g21
sI14
g21
sI15
g21
sI16
g21
sI17
g21
sa(dp24
I1
(lp25
S'1'
p26
aS'2'
p27
aS'3'
p28
aS'4'
p29
aS'5'
p30
aS'6'
p31
aS'7'
p32
aS'8'
p33
aS'9'
p34
aS'10'
p35
aS'11'
p36
aS'12'
p37
aS'13'
p38
aS'14'
p39
aS'15'
p40
aS'16'
p41
aS'17'
p42
aS'18'
p43
aS'19'
p44
aS'20'
p45
aS'21'
p46
aS'22'
p47
aS'23'
p48
aS'24'
p49
aS'25'
p50
aS'26'
p51
aS'27'
p52
aS'28'
p53
aS'29'
p54
aS'30'
p55
aS'31'
p56
aS'32'
p57
aS'33'
p58
aS'34'
p59
aS'35'
p60
aS'36'
p61
aS'37'
p62
aS'38'
p63
aS'39'
p64
aS'40'
p65
aS'41'
p66
aS'42'
p67
aS'43'
p68
aS'44'
p69
aS'45'
p70
aS'46'
p71
aS'47'
p72
aS'48'
p73
aS'49'
p74
aS'50'
p75
aS'51'
p76
aS'52'
p77
aS'53'
p78
aS'54'
p79
aS'55'
p80
aS'56'
p81
aS'57'
p82
aS'58'
p83
aS'59'
p84
aS'60'
p85
aS'61'
p86
aS'62'
p87
aS'63'
p88
aS'64'
p89
aS'65'
p90
aS'66'
p91
aS'67'
p92
aS'68'
p93
aS'69'
p94
aS'70'
p95
aS'71'
p96
aS'72'
p97
aS'73'
p98
aS'74'
p99
aS'75'
p100
aS'76'
p101
aS'77'
p102
aS'78'
p103
aS'79'
p104
aS'80'
p105
aS'81'
p106
aS'82'
p107
aS'83'
p108
aS'84'
p109
aS'85'
p110
aS'86'
p111
aS'87'
p112
aS'88'
p113
aS'89'
p114
aS'90'
p115
aS'91'
p116
aS'92'
p117
aS'93'
p118
aS'94'
p119
aS'95'
p120
aS'96'
p121
aS'97'
p122
aS'98'
p123
aS'99'
p124
aS'100'
p125
aS'101'
p126
aS'102'
p127
aS'103'
p128
aS'104'
p129
aS'105'
p130
aS'106'
p131
aS'107'
p132
aS'108'
p133
aS'109'
p134
aS'110'
p135
aS'111'
p136
aS'112'
p137
aS'113'
p138
aS'114'
p139
aS'115'
p140
aS'116'
p141
aS'117'
p142
aS'118'
p143
aS'119'
p144
aS'120'
p145
aS'121'
p146
aS'122'
p147
aS'123'
p148
aS'124'
p149
aS'125'
p150
aS'126'
p151
aS'127'
p152
aS'128'
p153
aS'129'
p154
aS'130'
p155
aS'131'
p156
aS'132'
p157
aS'133'
p158
aS'134'
p159
aS'135'
p160
aS'136'
p161
aS'137'
p162
aS'138'
p163
aS'139'
p164
asI2
(lp165
g26
ag29
ag32
ag33
ag34
ag39
ag40
ag42
ag43
ag45
ag48
ag49
ag50
ag53
ag54
ag55
ag56
ag59
ag63
ag64
ag67
ag69
ag72
ag74
ag75
ag76
ag77
ag79
ag83
ag85
ag86
ag89
ag91
ag92
ag93
ag94
ag95
ag96
ag97
ag100
ag101
ag105
ag106
ag111
ag114
ag119
ag120
ag121
ag122
ag125
ag126
ag127
ag128
ag129
ag132
ag133
ag134
ag141
ag142
ag143
ag144
ag145
ag147
ag148
ag150
ag152
ag153
ag157
ag162
asI3
(lp166
g27
ag28
ag30
ag31
ag35
ag36
ag37
ag38
ag41
ag44
ag46
ag47
ag51
ag52
ag57
ag58
ag60
ag61
ag62
ag65
ag66
ag68
ag70
ag71
ag73
ag78
ag80
ag81
ag82
ag84
ag87
ag88
ag90
ag98
ag99
ag102
ag103
ag104
ag107
ag108
ag109
ag110
ag112
ag113
ag115
ag116
ag117
ag118
ag123
ag124
ag130
ag131
ag135
ag136
ag137
ag138
ag139
ag140
ag146
ag149
ag151
ag154
ag155
ag156
ag158
ag159
ag160
ag161
ag163
ag164
asI4
(lp167
g27
ag28
ag30
ag31
ag35
ag36
ag38
ag52
ag62
ag65
ag66
ag71
ag73
ag78
ag81
ag84
ag98
ag99
ag107
ag110
ag112
ag116
ag118
ag124
ag136
ag137
ag139
ag140
ag149
ag151
ag154
ag155
ag156
ag158
ag161
asI5
(lp168
g37
ag41
ag44
ag46
ag47
ag51
ag57
ag58
ag60
ag61
ag68
ag70
ag80
ag82
ag87
ag88
ag90
ag102
ag103
ag104
ag108
ag109
ag113
ag115
ag117
ag123
ag130
ag131
ag135
ag138
ag146
ag159
ag160
ag163
ag164
asI6
(lp169
g44
ag47
ag51
ag80
ag87
ag88
ag90
ag102
ag103
ag108
ag109
ag115
ag117
ag123
ag131
ag159
asI7
(lp170
g37
ag41
ag46
ag57
ag58
ag60
ag61
ag68
ag70
ag82
ag104
ag113
ag130
ag135
ag138
ag146
ag160
ag163
ag164
asI8
(lp171
g46
ag57
ag58
ag104
ag130
ag135
ag160
asI9
(lp172
g37
ag41
ag60
ag61
ag68
ag70
ag82
ag113
ag138
ag146
ag163
ag164
asI10
(lp173
g37
ag60
ag68
ag113
ag146
ag163
asI11
(lp174
g41
ag61
ag70
ag82
ag138
ag164
asI12
(lp175
g41
ag70
ag82
asI13
(lp176
g61
ag138
ag164
asI14
(lp177
g164
asI15
(lp178
g61
ag138
asI16
(lp179
g138
asI17
(lp180
g61
asa(dp181
I1
S'winpercent'
p182
sI2
NsI3
NsI4
NsI5
NsI6
NsI7
NsI8
NsI9
NsI10
NsI11
NsI12
NsI13
NsI14
NsI15
NsI16
NsI17
Nsa(dp183
I1
cnumpy.core.multiarray
scalar
p184
(cnumpy
dtype
p185
(S'f8'
p186
I0
I1
tp187
Rp188
(I3
S'<'
p189
NNNI-1
I-1
I0
tp190
bS'\x8ch$\ny\xe1\xe5?'
p191
tp192
Rp193
sI2
NsI3
NsI4
NsI5
NsI6
NsI7
NsI8
NsI9
NsI10
NsI11
NsI12
NsI13
NsI14
NsI15
NsI16
NsI17
Nsa(dp194
I1
g26
sI2
g26
sI3
g26
sI4
g26
sI5
g26
sI6
g26
sI7
g26
sI8
g26
sI9
g26
sI10
g26
sI11
S'0'
p195
sI12
g195
sI13
g26
sI14
g195
sI15
g26
sI16
g26
sI17
g26
sasS'nType'
p196
I4
sS'splitValue'
p197
I7
sS'majorityClassification'
p198
I8
sS'splitAtribute'
p199
I6
sb.