(itree_util
NodePack
p0
(dp1
S'child0'
p2
I1
sS'splitType'
p3
I3
sS'parent'
p4
I0
sS'child1'
p5
I2
sS'dataRowIDs'
p6
I5
sS'fields'
p7
(lp8
(dp9
I0
NsI1
I0
sI2
I0
sI3
I2
sI4
I2
sI5
I4
sI6
I4
sI7
I5
sI8
I5
sI9
I7
sI10
I7
sI11
I9
sI12
I9
sI13
I10
sI14
I10
sI15
I11
sI16
I11
sa(dp10
I0
I15
sI1
NsI2
NsI3
NsI4
NsI5
NsI6
NsI7
NsI8
NsI9
NsI10
NsI11
NsI12
NsI13
NsI14
NsI15
NsI16
Nsa(dp11
I0
I16
sI1
NsI2
NsI3
NsI4
NsI5
NsI6
NsI7
NsI8
NsI9
NsI10
NsI11
NsI12
NsI13
NsI14
NsI15
NsI16
Nsa(dp12
I0
cdata_util
FeatureType
p13
(I1
tp14
Rp15
sI1
NsI2
g13
(I0
tp16
Rp17
sI3
NsI4
g17
sI5
g15
sI6
NsI7
g17
sI8
NsI9
g17
sI10
g15
sI11
g15
sI12
NsI13
NsI14
NsI15
NsI16
Nsa(dp18
I0
ctree_util
NodeType
p19
(I0
tp20
Rp21
sI1
g19
(I2
tp22
Rp23
sI2
g19
(I3
tp24
Rp25
sI3
g23
sI4
g25
sI5
g25
sI6
g23
sI7
g25
sI8
g23
sI9
g25
sI10
g25
sI11
g25
sI12
g23
sI13
g23
sI14
g23
sI15
g23
sI16
g23
sa(dp26
I0
(lp27
S'1'
p28
aS'2'
p29
aS'3'
p30
aS'4'
p31
aS'5'
p32
aS'6'
p33
aS'7'
p34
aS'8'
p35
aS'9'
p36
aS'10'
p37
aS'11'
p38
aS'12'
p39
aS'13'
p40
aS'14'
p41
aS'15'
p42
aS'16'
p43
aS'17'
p44
aS'18'
p45
aS'19'
p46
aS'20'
p47
aS'21'
p48
aS'22'
p49
aS'23'
p50
aS'24'
p51
aS'25'
p52
aS'26'
p53
aS'27'
p54
aS'28'
p55
aS'29'
p56
aS'30'
p57
aS'31'
p58
aS'32'
p59
aS'33'
p60
aS'34'
p61
aS'35'
p62
aS'36'
p63
aS'37'
p64
aS'38'
p65
aS'39'
p66
aS'40'
p67
aS'41'
p68
aS'42'
p69
aS'43'
p70
aS'44'
p71
aS'45'
p72
aS'46'
p73
aS'47'
p74
aS'48'
p75
aS'49'
p76
aS'50'
p77
aS'51'
p78
aS'52'
p79
aS'53'
p80
aS'54'
p81
aS'55'
p82
aS'56'
p83
aS'57'
p84
aS'58'
p85
aS'59'
p86
aS'60'
p87
aS'61'
p88
aS'62'
p89
aS'63'
p90
aS'64'
p91
aS'65'
p92
aS'66'
p93
aS'67'
p94
aS'68'
p95
aS'69'
p96
aS'70'
p97
aS'71'
p98
aS'72'
p99
aS'73'
p100
aS'74'
p101
aS'75'
p102
aS'76'
p103
aS'77'
p104
aS'78'
p105
aS'79'
p106
aS'80'
p107
aS'81'
p108
aS'82'
p109
aS'83'
p110
aS'84'
p111
aS'85'
p112
aS'86'
p113
aS'87'
p114
aS'88'
p115
aS'89'
p116
aS'90'
p117
aS'91'
p118
aS'92'
p119
aS'93'
p120
aS'94'
p121
aS'95'
p122
aS'96'
p123
aS'97'
p124
aS'98'
p125
aS'99'
p126
aS'100'
p127
aS'101'
p128
aS'102'
p129
aS'103'
p130
aS'104'
p131
aS'105'
p132
aS'106'
p133
aS'107'
p134
aS'108'
p135
aS'109'
p136
aS'110'
p137
aS'111'
p138
aS'112'
p139
aS'113'
p140
aS'114'
p141
aS'115'
p142
aS'116'
p143
aS'117'
p144
aS'118'
p145
aS'119'
p146
aS'120'
p147
aS'121'
p148
aS'122'
p149
aS'123'
p150
aS'124'
p151
aS'125'
p152
aS'126'
p153
aS'127'
p154
aS'128'
p155
aS'129'
p156
aS'130'
p157
aS'131'
p158
aS'132'
p159
aS'133'
p160
aS'134'
p161
aS'135'
p162
aS'136'
p163
aS'137'
p164
aS'138'
p165
aS'139'
p166
asI1
(lp167
g28
ag31
ag34
ag35
ag36
ag41
ag42
ag44
ag45
ag47
ag50
ag51
ag52
ag55
ag56
ag57
ag58
ag61
ag65
ag66
ag69
ag71
ag74
ag76
ag77
ag78
ag79
ag81
ag85
ag87
ag88
ag91
ag93
ag94
ag95
ag96
ag97
ag98
ag99
ag102
ag103
ag107
ag108
ag113
ag116
ag121
ag122
ag123
ag124
ag127
ag128
ag129
ag130
ag131
ag134
ag135
ag136
ag143
ag144
ag145
ag146
ag147
ag149
ag150
ag152
ag154
ag155
ag159
ag164
asI2
(lp168
g29
ag30
ag32
ag33
ag37
ag38
ag39
ag40
ag43
ag46
ag48
ag49
ag53
ag54
ag59
ag60
ag62
ag63
ag64
ag67
ag68
ag70
ag72
ag73
ag75
ag80
ag82
ag83
ag84
ag86
ag89
ag90
ag92
ag100
ag101
ag104
ag105
ag106
ag109
ag110
ag111
ag112
ag114
ag115
ag117
ag118
ag119
ag120
ag125
ag126
ag132
ag133
ag137
ag138
ag139
ag140
ag141
ag142
ag148
ag151
ag153
ag156
ag157
ag158
ag160
ag161
ag162
ag163
ag165
ag166
asI3
(lp169
g29
ag30
ag32
ag33
ag37
ag38
ag40
ag54
ag64
ag67
ag68
ag73
ag75
ag80
ag83
ag86
ag100
ag101
ag109
ag112
ag114
ag118
ag120
ag126
ag138
ag139
ag141
ag142
ag151
ag153
ag156
ag157
ag158
ag160
ag163
asI4
(lp170
g39
ag43
ag46
ag48
ag49
ag53
ag59
ag60
ag62
ag63
ag70
ag72
ag82
ag84
ag89
ag90
ag92
ag104
ag105
ag106
ag110
ag111
ag115
ag117
ag119
ag125
ag132
ag133
ag137
ag140
ag148
ag161
ag162
ag165
ag166
asI5
(lp171
g46
ag49
ag53
ag82
ag89
ag90
ag92
ag104
ag105
ag110
ag111
ag117
ag119
ag125
ag133
ag161
asI6
(lp172
g39
ag43
ag48
ag59
ag60
ag62
ag63
ag70
ag72
ag84
ag106
ag115
ag132
ag137
ag140
ag148
ag162
ag165
ag166
asI7
(lp173
g48
ag59
ag60
ag106
ag132
ag137
ag162
asI8
(lp174
g39
ag43
ag62
ag63
ag70
ag72
ag84
ag115
ag140
ag148
ag165
ag166
asI9
(lp175
g39
ag62
ag70
ag115
ag148
ag165
asI10
(lp176
g43
ag63
ag72
ag84
ag140
ag166
asI11
(lp177
g43
ag72
ag84
asI12
(lp178
g63
ag140
ag166
asI13
(lp179
g166
asI14
(lp180
g63
ag140
asI15
(lp181
g140
asI16
(lp182
g63
asa(dp183
I0
S'rundifferential'
p184
sI1
NsI2
S'numinjured'
p185
sI3
NsI4
g185
sI5
S'oppwinpercent'
p186
sI6
NsI7
S'oppdayssincegame'
p187
sI8
NsI9
S'oppnuminjured'
p188
sI10
g184
sI11
S'winpercent'
p189
sI12
NsI13
NsI14
NsI15
NsI16
Nsa(dp190
I0
F44.0
sI1
NsI2
g29
sI3
NsI4
g28
sI5
F0.6278062246
sI6
NsI7
g29
sI8
NsI9
g30
sI10
F31.5
sI11
cnumpy.core.multiarray
scalar
p191
(cnumpy
dtype
p192
(S'f8'
p193
I0
I1
tp194
Rp195
(I3
S'<'
p196
NNNI-1
I-1
I0
tp197
bS'\x8ch$\ny\xe1\xe5?'
p198
tp199
Rp200
sI12
NsI13
NsI14
NsI15
NsI16
Nsa(dp201
I0
g28
sI1
g28
sI2
g28
sI3
g28
sI4
g28
sI5
g28
sI6
g28
sI7
g28
sI8
g28
sI9
g28
sI10
S'0'
p202
sI11
g202
sI12
g28
sI13
g202
sI14
g28
sI15
g28
sI16
g28
sasS'nType'
p203
I4
sS'splitValue'
p204
I7
sS'majorityClassification'
p205
I8
sS'splitAtribute'
p206
I6
sb.